Certificate:
    Data:
        Version: 3 (0x2)
        Serial Number:
            08:75:01:e3:3c:07:c7:e0:03:33:3f:da:51:04:1c:3f
        Signature Algorithm: sha256WithRSAEncryption
        Issuer: CN=dc-agent-test-ca
        Validity
            Not Before: Mar 18 18:52:00 2024 GMT
            Not After : Jun 21 18:52:00 2026 GMT
        Subject: CN=dc-agent-client-01
        Subject Public Key Info:
            Public Key Algorithm: rsaEncryption
                Public-Key: (2048 bit)
                Modulus:
                    00:9d:cf:8f:bc:75:52:a8:3a:af:70:60:8c:a6:5b:
                    63:4b:25:32:b8:37:95:06:25:4c:18:92:83:78:33:
                    a1:7f:50:d2:0b:7d:cd:d2:f7:c0:3c:5a:67:e4:04:
                    a6:52:f4:77:32:7c:c3:12:88:b9:c0:28:66:bd:a9:
                    c6:28:8c:76:fc:08:74:b2:fd:3c:f3:b4:74:84:96:
                    fb:51:7d:21:fd:23:c6:0c:82:ae:8b:14:2f:d8:6e:
                    3e:fa:53:1a:ec:0a:9a:5f:80:f4:61:c3:77:89:5a:
                    f2:f7:54:1b:0f:3d:32:40:94:19:f5:93:5b:9e:e5:
                    0c:09:77:76:37:89:d5:e3:f0:ca:7e:d7:f4:fa:4f:
                    c1:b8:cc:39:11:91:8d:8d:75:fe:91:fe:a5:4e:ce:
                    ca:e4:1b:0c:ea:84:08:df:b7:86:aa:3c:db:19:af:
                    4b:29:3a:a3:66:9d:eb:b8:70:73:fc:f3:dd:e6:a9:
                    73:90:f8:02:42:01:eb:83:74:44:53:3d:0e:60:f9:
                    de:7f:67:50:fb:ac:34:5f:99:d0:1b:15:de:c0:51:
                    d8:4b:7a:10:ac:29:11:49:c8:74:88:ac:11:28:31:
                    2f:54:44:a8:e1:10:54:94:d2:a8:6d:c0:d0:15:41:
                    2e:7e:97:51:b2:f7:5f:32:44:85:c2:bd:0c:d0:6f:
                    bf:81
                Exponent: 65537 (0x10001)
        X509v3 extensions:
            X509v3 Basic Constraints: 
                CA:FALSE
            X509v3 Subject Key Identifier: 
                59:C0:0E:02:D1:71:A3:65:D3:54:D7:70:DB:F7:1D:F2:DD:FB:01:6C
            X509v3 Authority Key Identifier: 
                keyid:13:B6:BC:BA:D7:91:BD:E6:DE:99:BE:7D:DE:02:30:64:95:A0:E2:CF
                DirName:/CN=dc-agent-test-ca
                serial:38:37:C6:3B:FD:E8:C7:26:34:65:39:56:CC:07:68:F9:58:E6:F0:71
            X509v3 Extended Key Usage: 
                TLS Web Client Authentication
            X509v3 Key Usage: 
                Digital Signature
    Signature Algorithm: sha256WithRSAEncryption
    Signature Value:
        7d:b5:10:f6:02:5e:49:07:e2:a0:ab:66:ee:67:8f:c5:bb:e4:
        37:83:7c:7b:66:db:c4:1a:a0:5f:58:c8:4f:8c:ba:aa:b6:bc:
        2d:75:c3:9b:d9:1f:f7:18:f3:2b:ef:93:51:fa:70:b9:70:93:
        45:49:cd:be:d9:35:ae:90:81:9d:fb:71:7d:1b:de:2e:f8:94:
        bf:8b:e6:55:7a:39:eb:b1:7d:57:39:c1:63:36:3d:32:af:80:
        2e:f1:4b:99:4e:24:2a:ab:3e:b1:09:bc:e5:f3:74:da:c6:b2:
        3d:cb:37:27:15:c2:b9:9b:d3:3a:59:f9:c6:f2:2d:5d:aa:fc:
        b6:28:cb:77:47:f7:f3:0d:fe:d1:9a:b9:f1:c0:00:68:da:31:
        56:6a:f1:b9:2b:ef:9d:8d:bd:93:49:25:c5:ac:33:0b:6b:16:
        61:cc:14:91:31:b1:6e:d7:24:18:71:fa:ce:a7:42:26:72:34:
        55:43:ba:eb:e9:b8:e7:93:ae:76:37:a1:fc:99:83:19:0f:71:
        09:4e:6a:8c:9c:f5:87:fb:4d:ff:38:8e:96:7b:fe:dd:5b:e7:
        95:4d:ca:30:63:57:a5:63:f2:2d:ee:f4:f7:02:d1:d3:7d:80:
        5b:c1:d5:90:9f:72:9d:78:46:df:c1:3f:52:a8:56:08:d5:9a:
        80:5a:2b:81
-----BEGIN CERTIFICATE-----
MIIDajCCAlKgAwIBAgIQCHUB4zwHx+ADMz/aUQQcPzANBgkqhkiG9w0BAQsFADAb
MRkwFwYDVQQDDBBkYy1hZ2VudC10ZXN0LWNhMB4XDTI0MDMxODE4NTIwMFoXDTI2
MDYyMTE4NTIwMFowHTEbMBkGA1UEAwwSZGMtYWdlbnQtY2xpZW50LTAxMIIBIjAN
BgkqhkiG9w0BAQEFAAOCAQ8AMIIBCgKCAQEAnc+PvHVSqDqvcGCMpltjSyUyuDeV
BiVMGJKDeDOhf1DSC33N0vfAPFpn5ASmUvR3MnzDEoi5wChmvanGKIx2/Ah0sv08
87R0hJb7UX0h/SPGDIKuixQv2G4++lMa7AqaX4D0YcN3iVry91QbDz0yQJQZ9ZNb
nuUMCXd2N4nV4/DKftf0+k/BuMw5EZGNjXX+kf6lTs7K5BsM6oQI37eGqjzbGa9L
KTqjZp3ruHBz/PPd5qlzkPgCQgHrg3REUz0OYPnef2dQ+6w0X5nQGxXewFHYS3oQ
rCkRSch0iKwRKDEvVESo4RBUlNKobcDQFUEufpdRsvdfMkSFwr0M0G+/gQIDAQAB
o4GnMIGkMAkGA1UdEwQCMAAwHQYDVR0OBBYEFFnADgLRcaNl01TXcNv3HfLd+wFs
MFYGA1UdIwRPME2AFBO2vLrXkb3m3pm+fd4CMGSVoOLPoR+kHTAbMRkwFwYDVQQD
DBBkYy1hZ2VudC10ZXN0LWNhghQ4N8Y7/ejHJjRlOVbMB2j5WObwcTATBgNVHSUE
DDAKBggrBgEFBQcDAjALBgNVHQ8EBAMCB4AwDQYJKoZIhvcNAQELBQADggEBAH21
EPYCXkkH4qCrZu5nj8W75DeDfHtm28QaoF9YyE+Muqq2vC11w5vZH/cY8yvvk1H6
cLlwk0VJzb7ZNa6QgZ37cX0b3i74lL+L5lV6OeuxfVc5wWM2PTKvgC7xS5lOJCqr
PrEJvOXzdNrGsj3LNycVwrmb0zpZ+cbyLV2q/LYoy3dH9/MN/tGaufHAAGjaMVZq
8bkr752NvZNJJcWsMwtrFmHMFJExsW7XJBhx+s6nQiZyNFVDuuvpuOeTrnY3ofyZ
gxkPcQlOaoyc9Yf7Tf84jpZ7/t1b55VNyjBjV6Vj8i3u9PcC0dN9gFvB1ZCfcp14
Rt/BP1KoVgjVmoBaK4E=
-----END CERTIFICATE-----
